target datalayout = "e-m:e-p270:32:32-p271:32:32-p272:64:64-i64:64-i128:128-f80:128-n8:16:32:64-S128"
target triple = "x86_64-unknown-linux-gnu"

%struct.MemoryRegionOps = type { ptr, ptr, ptr, ptr, i32, %struct.anon.11, %struct.anon.12 }
%struct.anon.11 = type { i32, i32, i8, ptr }
%struct.anon.12 = type { i32, i32, i8 }
%struct.SysBusDevice = type { %struct.DeviceState, i32, [32 x %struct.anon], i32, [32 x i32] }
%struct.DeviceState = type { %struct.Object, ptr, ptr, i8, i8, i64, ptr, i32, i8, ptr, %struct.NamedGPIOListHead, %struct.NamedClockListHead, %struct.BusStateHead, i32, i32, i32, %struct.ResettableState, ptr, %struct.MemReentrancyGuard }
%struct.Object = type { ptr, ptr, ptr, i32, ptr }
%struct.NamedGPIOListHead = type { ptr }
%struct.NamedClockListHead = type { ptr }
%struct.BusStateHead = type { ptr }
%struct.ResettableState = type { i32, i8, i8 }
%struct.MemReentrancyGuard = type { i8 }
%struct.anon = type { i64, ptr }
%struct.MemoryRegion = type { %struct.Object, i8, i8, i8, i8, i8, i8, i8, i8, i8, i8, ptr, ptr, ptr, ptr, ptr, ptr, i32, i128, i64, ptr, i64, i8, i8, i8, i8, i8, ptr, i64, i32, %union.anon, %union.anon.0, %union.anon.1, ptr, i32, ptr, ptr, i8 }
%union.anon = type { %struct.QTailQLink }
%struct.QTailQLink = type { ptr, ptr }
%union.anon.0 = type { %struct.QTailQLink }
%union.anon.1 = type { %struct.QTailQLink }
%struct.RISCVAclintSwiState = type { %struct.SysBusDevice, %struct.MemoryRegion, i32, i32, i32, ptr }

@.str.1 = private unnamed_addr constant [31 x i8] c"../qemu/hw/intc/riscv_aclint.c\00", align 1
@.str.12 = private unnamed_addr constant [17 x i8] c"riscv.aclint.swi\00", align 1
@.str.15 = private unnamed_addr constant [15 x i8] c"sys-bus-device\00", align 1
@.str.16 = private unnamed_addr constant [98 x i8] c"/home/dtcxzyw/WorkSpace/Projects/compilers/llvm-opt-benchmark/bench/qemu/qemu/include/hw/sysbus.h\00", align 1
@__func__.SYS_BUS_DEVICE = private unnamed_addr constant [15 x i8] c"SYS_BUS_DEVICE\00", align 1
@.str.17 = private unnamed_addr constant [10 x i8] c"riscv-cpu\00", align 1
@.str.18 = private unnamed_addr constant [101 x i8] c"/home/dtcxzyw/WorkSpace/Projects/compilers/llvm-opt-benchmark/bench/qemu/qemu/target/riscv/cpu-qom.h\00", align 1
@__func__.RISCV_CPU = private unnamed_addr constant [10 x i8] c"RISCV_CPU\00", align 1
@__func__.riscv_aclint_swi_realize = private unnamed_addr constant [25 x i8] c"riscv_aclint_swi_realize\00", align 1
@riscv_aclint_swi_ops = internal constant %struct.MemoryRegionOps { ptr @riscv_aclint_swi_read, ptr @riscv_aclint_swi_write, ptr null, ptr null, i32 2, %struct.anon.11 { i32 4, i32 4, i8 0, ptr null }, %struct.anon.12 zeroinitializer }, align 8
@.str.32 = private unnamed_addr constant [21 x i8] c"MSIP already claimed\00", align 1

; Function Attrs: nounwind sspstrong uwtable
define internal ptr @RISCV_CPU(ptr noundef %obj) #0 {
entry:
  %obj.addr = alloca ptr, align 8
  store ptr %obj, ptr %obj.addr, align 8
  %0 = load ptr, ptr %obj.addr, align 8
  %call = call ptr @object_dynamic_cast_assert(ptr noundef %0, ptr noundef @.str.17, ptr noundef @.str.18, i32 noundef 46, ptr noundef @__func__.RISCV_CPU)
  ret ptr %call
}

; Function Attrs: nounwind sspstrong uwtable
define internal ptr @SYS_BUS_DEVICE(ptr noundef %obj) #0 {
entry:
  %obj.addr = alloca ptr, align 8
  store ptr %obj, ptr %obj.addr, align 8
  %0 = load ptr, ptr %obj.addr, align 8
  %call = call ptr @object_dynamic_cast_assert(ptr noundef %0, ptr noundef @.str.15, ptr noundef @.str.16, i32 noundef 20, ptr noundef @__func__.SYS_BUS_DEVICE)
  ret ptr %call
}

; Function Attrs: nounwind sspstrong uwtable
define internal void @riscv_aclint_swi_realize(ptr noundef %dev, ptr noundef %errp) #0 {
entry:
  %dev.addr = alloca ptr, align 8
  %errp.addr = alloca ptr, align 8
  %swi = alloca ptr, align 8
  %i = alloca i32, align 4
  %cpu = alloca ptr, align 8
  store ptr %dev, ptr %dev.addr, align 8
  store ptr %errp, ptr %errp.addr, align 8
  %0 = load ptr, ptr %dev.addr, align 8
  %call = call ptr @object_dynamic_cast_assert(ptr noundef %0, ptr noundef @.str.12, ptr noundef @.str.1, i32 noundef 474, ptr noundef @__func__.riscv_aclint_swi_realize)
  store ptr %call, ptr %swi, align 8
  %1 = load ptr, ptr %swi, align 8
  %mmio = getelementptr inbounds %struct.RISCVAclintSwiState, ptr %1, i32 0, i32 1
  %2 = load ptr, ptr %dev.addr, align 8
  %3 = load ptr, ptr %swi, align 8
  call void @memory_region_init_io(ptr noundef %mmio, ptr noundef %2, ptr noundef @riscv_aclint_swi_ops, ptr noundef %3, ptr noundef @.str.12, i64 noundef 16384)
  %4 = load ptr, ptr %dev.addr, align 8
  %call1 = call ptr @SYS_BUS_DEVICE(ptr noundef %4)
  %5 = load ptr, ptr %swi, align 8
  %mmio2 = getelementptr inbounds %struct.RISCVAclintSwiState, ptr %5, i32 0, i32 1
  call void @sysbus_init_mmio(ptr noundef %call1, ptr noundef %mmio2)
  %6 = load ptr, ptr %swi, align 8
  %num_harts = getelementptr inbounds %struct.RISCVAclintSwiState, ptr %6, i32 0, i32 3
  %7 = load i32, ptr %num_harts, align 4
  %conv = zext i32 %7 to i64
  %call3 = call noalias ptr @g_malloc_n(i64 noundef %conv, i64 noundef 8) #5
  %8 = load ptr, ptr %swi, align 8
  %soft_irqs = getelementptr inbounds %struct.RISCVAclintSwiState, ptr %8, i32 0, i32 5
  store ptr %call3, ptr %soft_irqs, align 16
  %9 = load ptr, ptr %dev.addr, align 8
  %10 = load ptr, ptr %swi, align 8
  %soft_irqs4 = getelementptr inbounds %struct.RISCVAclintSwiState, ptr %10, i32 0, i32 5
  %11 = load ptr, ptr %soft_irqs4, align 16
  %12 = load ptr, ptr %swi, align 8
  %num_harts5 = getelementptr inbounds %struct.RISCVAclintSwiState, ptr %12, i32 0, i32 3
  %13 = load i32, ptr %num_harts5, align 4
  call void @qdev_init_gpio_out(ptr noundef %9, ptr noundef %11, i32 noundef %13)
  store i32 0, ptr %i, align 4
  br label %for.cond

for.cond:                                         ; preds = %for.inc, %entry
  %14 = load i32, ptr %i, align 4
  %15 = load ptr, ptr %swi, align 8
  %num_harts6 = getelementptr inbounds %struct.RISCVAclintSwiState, ptr %15, i32 0, i32 3
  %16 = load i32, ptr %num_harts6, align 4
  %cmp = icmp ult i32 %14, %16
  br i1 %cmp, label %for.body, label %for.end

for.body:                                         ; preds = %for.cond
  %17 = load ptr, ptr %swi, align 8
  %hartid_base = getelementptr inbounds %struct.RISCVAclintSwiState, ptr %17, i32 0, i32 2
  %18 = load i32, ptr %hartid_base, align 16
  %19 = load i32, ptr %i, align 4
  %add = add i32 %18, %19
  %call8 = call ptr @qemu_get_cpu(i32 noundef %add)
  %call9 = call ptr @RISCV_CPU(ptr noundef %call8)
  store ptr %call9, ptr %cpu, align 8
  %20 = load ptr, ptr %cpu, align 8
  %21 = load ptr, ptr %swi, align 8
  %sswi = getelementptr inbounds %struct.RISCVAclintSwiState, ptr %21, i32 0, i32 4
  %22 = load i32, ptr %sswi, align 8
  %tobool = icmp ne i32 %22, 0
  %cond = select i1 %tobool, i32 0, i32 8
  %conv10 = sext i32 %cond to i64
  %call11 = call i32 @riscv_cpu_claim_interrupts(ptr noundef %20, i64 noundef %conv10)
  %cmp12 = icmp slt i32 %call11, 0
  br i1 %cmp12, label %if.then, label %if.end

if.then:                                          ; preds = %for.body
  call void (ptr, ...) @error_report(ptr noundef @.str.32)
  call void @exit(i32 noundef 1) #4
  unreachable

if.end:                                           ; preds = %for.body
  br label %for.inc

for.inc:                                          ; preds = %if.end
  %23 = load i32, ptr %i, align 4
  %inc = add i32 %23, 1
  store i32 %inc, ptr %i, align 4
  br label %for.cond, !llvm.loop !10

for.end:                                          ; preds = %for.cond
  ret void
}