; Function Attrs: nounwind sspstrong uwtable
define internal void @riscv_aclint_swi_realize(ptr noundef %dev, ptr readnone captures(none) %errp) #0 {
entry:
  %call = tail call ptr @object_dynamic_cast_assert(ptr noundef %dev, ptr noundef nonnull @.str.12, ptr noundef nonnull @.str.1, i32 noundef 474, ptr noundef nonnull @__func__.riscv_aclint_swi_realize) #6
  %mmio = getelementptr inbounds nuw i8, ptr %call, i64 816
  tail call void @memory_region_init_io(ptr noundef nonnull %mmio, ptr noundef %dev, ptr noundef nonnull @riscv_aclint_swi_ops, ptr noundef %call, ptr noundef nonnull @.str.12, i64 noundef 16384) #6
  %call.i = tail call ptr @object_dynamic_cast_assert(ptr noundef %dev, ptr noundef nonnull @.str.15, ptr noundef nonnull @.str.16, i32 noundef 20, ptr noundef nonnull @__func__.SYS_BUS_DEVICE) #6
  tail call void @sysbus_init_mmio(ptr noundef %call.i, ptr noundef nonnull %mmio) #6
  %num_harts = getelementptr inbounds nuw i8, ptr %call, i64 1092
  %0 = load i32, ptr %num_harts, align 4
  %conv = zext i32 %0 to i64
  %call3 = tail call noalias ptr @g_malloc_n(i64 noundef %conv, i64 noundef 8) #8
  %soft_irqs = getelementptr inbounds nuw i8, ptr %call, i64 1104
  store ptr %call3, ptr %soft_irqs, align 16
  %1 = load i32, ptr %num_harts, align 4
  tail call void @qdev_init_gpio_out(ptr noundef %dev, ptr noundef %call3, i32 noundef %1) #6
  %2 = load i32, ptr %num_harts, align 4
  %cmp16.not = icmp eq i32 %2, 0
  br i1 %cmp16.not, label %for.end, label %for.body.lr.ph

for.body.lr.ph:                                   ; preds = %entry
  %hartid_base = getelementptr inbounds nuw i8, ptr %call, i64 1088
  %sswi = getelementptr inbounds nuw i8, ptr %call, i64 1096
  br label %for.body

for.cond:                                         ; preds = %for.body
  %inc = add nuw i32 %i.017, 1
  %3 = load i32, ptr %num_harts, align 4
  %cmp = icmp ult i32 %inc, %3
  br i1 %cmp, label %for.body, label %for.end, !llvm.loop !10

for.body:                                         ; preds = %for.body.lr.ph, %for.cond
  %i.017 = phi i32 [ 0, %for.body.lr.ph ], [ %inc, %for.cond ]
  %4 = load i32, ptr %hartid_base, align 16
  %add = add i32 %4, %i.017
  %call8 = tail call ptr @qemu_get_cpu(i32 noundef %add) #6
  %call.i15 = tail call ptr @object_dynamic_cast_assert(ptr noundef %call8, ptr noundef nonnull @.str.17, ptr noundef nonnull @.str.18, i32 noundef 46, ptr noundef nonnull @__func__.RISCV_CPU) #6
  %5 = load i32, ptr %sswi, align 8
  %tobool.not = icmp eq i32 %5, 0
  %cond = select i1 %tobool.not, i64 8, i64 0
  %call11 = tail call i32 @riscv_cpu_claim_interrupts(ptr noundef %call.i15, i64 noundef %cond) #6
  %cmp12 = icmp slt i32 %call11, 0
  br i1 %cmp12, label %if.then, label %for.cond

if.then:                                          ; preds = %for.body
  tail call void (ptr, ...) @error_report(ptr noundef nonnull @.str.32) #6
  tail call void @exit(i32 noundef 1) #9
  unreachable

for.end:                                          ; preds = %for.cond, %entry
  ret void
}